(dp0
S'1'
p1
(dp2
S'y'
p3
F0.09999999999999998
sS'x'
p4
F2.700000000000001
sS'z'
p5
F-1.4000000000000001
ssS'0'
p6
(dp7
g3
F1.5000000000000002
sg4
F0.6
sg5
F-1.2
ssS'3'
p8
(dp9
g3
F-0.6
sg4
F-0.20000000000000004
sg5
F-1.0999999999999999
ssS'2'
p10
(dp11
g3
F-0.30000000000000004
sg4
F0.9999999999999999
sg5
F-1.0999999999999999
ssS'5'
p12
(dp13
g3
F0.4
sg4
F0.8999999999999999
sg5
F-1.0999999999999999
ssS'4'
p14
(dp15
g3
F0.6
sg4
F2.3000000000000007
sg5
F-1.4000000000000001
ssS'7'
p16
(dp17
g3
F1.2
sg4
F2.0000000000000004
sg5
F-1.4000000000000001
ssS'6'
p18
(dp19
g3
F2.7755575615628914e-17
sg4
F-0.30000000000000004
sg5
F-1.0999999999999999
ssS'9'
p20
(dp21
g3
F0.7
sg4
F-0.5
sg5
F-1.0999999999999999
ssS'X'
p22
(dp23
S'y'
p24
F0.9999999999999999
sS'x'
p25
F0.5
sS'z'
p26
F-1.0999999999999999
ssS'Z'
p27
(dp28
g3
F1.8000000000000003
sg4
F2.0000000000000004
sg5
F-1.5000000000000002
ssS'8'
p29
(dp30
g3
F1.0999999999999999
sg4
F0.8999999999999999
sg5
F-1.2
ss.