(dp0
S'1'
p1
(dp2
S'y'
p3
F0.9999999999999999
sS'x'
p4
F-1.0999999999999999
sS'z'
p5
F-0.30000000000000004
ssS'0'
p6
(dp7
g3
F-1.4000000000000001
sg4
F-0.1000000000000002
sg5
F-0.4
ssS'3'
p8
(dp9
g3
F0.9999999999999999
sg4
F1.8000000000000005
sg5
F-0.5
ssS'2'
p10
(dp11
g3
F0.7
sg4
F0.7
sg5
F-0.4
ssS'5'
p12
(dp13
g3
F-0.09999999999999998
sg4
F0.30000000000000004
sg5
F-0.30000000000000004
ssS'4'
p14
(dp15
g3
F2.7755575615628914e-17
sg4
F-1.0999999999999999
sg5
F-0.30000000000000004
ssS'7'
p16
(dp17
g3
F-0.5
sg4
F-1.0999999999999999
sg5
F-0.4
ssS'6'
p18
(dp19
g3
F-0.09999999999999998
sg4
F1.8000000000000005
sg5
F-0.6
ssS'9'
p20
(dp21
g3
F-0.6
sg4
F1.4
sg5
F-0.5
ssS'X'
p22
(dp23
g3
F-0.5
sg4
F0.3
sg5
F-0.30000000000000004
ssS'Z'
p24
(dp25
g3
F-1.5000000000000002
sg4
F-1.2000000000000004
sg5
F-0.5
ssS'8'
p26
(dp27
g3
F-0.5
sg4
F0.3
sg5
F-0.30000000000000004
ss.